; Function Attrs: mustprogress nounwind uwtable
define dso_local noundef zeroext i1 @_ZNK5clang6driver13OffloadAction25hasSingleDeviceDependenceEb(ptr noundef nonnull align 8 dereferenceable(136) %0, i1 noundef zeroext %1) local_unnamed_addr #0 align 2 {
  br i1 %1, label %3, label %10

3:                                                ; preds = %2
  %4 = getelementptr inbounds nuw i8, ptr %0, i64 16
  %5 = tail call noundef i64 @_ZNK4llvm15SmallVectorBaseIjE4sizeEv(ptr noundef nonnull align 8 dereferenceable(16) %4) #11
  %6 = getelementptr inbounds nuw i8, ptr %0, i64 88
  %7 = load ptr, ptr %6, align 8
  %.not2 = icmp eq ptr %7, null
  %8 = select i1 %.not2, i64 1, i64 2
  %9 = icmp eq i64 %5, %8
  br label %17

10:                                               ; preds = %2
  %11 = getelementptr inbounds nuw i8, ptr %0, i64 88
  %12 = load ptr, ptr %11, align 8
  %.not = icmp eq ptr %12, null
  br i1 %.not, label %13, label %17

13:                                               ; preds = %10
  %14 = getelementptr inbounds nuw i8, ptr %0, i64 16
  %15 = tail call noundef i64 @_ZNK4llvm15SmallVectorBaseIjE4sizeEv(ptr noundef nonnull align 8 dereferenceable(16) %14) #11
  %16 = icmp eq i64 %15, 1
  br label %17

17:                                               ; preds = %10, %13, %3
  %.0 = phi i1 [ %9, %3 ], [ false, %10 ], [ %16, %13 ]
  ret i1 %.0
}